target datalayout = "e-m:e-p270:32:32-p271:32:32-p272:64:64-i64:64-i128:128-f80:128-n8:16:32:64-S128"
target triple = "x86_64-unknown-linux-gnu"

%"class.std::vector.0" = type { %"struct.std::_Vector_base.1" }
%"struct.std::_Vector_base.1" = type { %"struct.std::_Vector_base<double, std::allocator<double>>::_Vector_impl" }
%"struct.std::_Vector_base<double, std::allocator<double>>::_Vector_impl" = type { %"struct.std::_Vector_base<double, std::allocator<double>>::_Vector_impl_data" }
%"struct.std::_Vector_base<double, std::allocator<double>>::_Vector_impl_data" = type { ptr, ptr, ptr }
%"class.QuantLib::CumulativeBehrensFisher" = type { %"class.std::vector", %"class.std::vector.0", %"class.std::vector.5", %"class.std::vector.0", double, double }
%"class.std::vector" = type { %"struct.std::_Vector_base" }
%"struct.std::_Vector_base" = type { %"struct.std::_Vector_base<int, std::allocator<int>>::_Vector_impl" }
%"struct.std::_Vector_base<int, std::allocator<int>>::_Vector_impl" = type { %"struct.std::_Vector_base<int, std::allocator<int>>::_Vector_impl_data" }
%"struct.std::_Vector_base<int, std::allocator<int>>::_Vector_impl_data" = type { ptr, ptr, ptr }
%"class.std::vector.5" = type { %"struct.std::_Vector_base.6" }
%"struct.std::_Vector_base.6" = type { %"struct.std::_Vector_base<std::vector<double>, std::allocator<std::vector<double>>>::_Vector_impl" }
%"struct.std::_Vector_base<std::vector<double>, std::allocator<std::vector<double>>>::_Vector_impl" = type { %"struct.std::_Vector_base<std::vector<double>, std::allocator<std::vector<double>>>::_Vector_impl_data" }
%"struct.std::_Vector_base<std::vector<double>, std::allocator<std::vector<double>>>::_Vector_impl_data" = type { ptr, ptr, ptr }

; Function Attrs: mustprogress nounwind uwtable
define linkonce_odr noundef i64 @_ZNKSt6vectorIdSaIdEE4sizeEv(ptr noundef nonnull align 8 dereferenceable(24) %this) #1 comdat align 2 {
entry:
  %this.addr = alloca ptr, align 8
  store ptr %this, ptr %this.addr, align 8, !tbaa !3
  %this1 = load ptr, ptr %this.addr, align 8
  %_M_impl = getelementptr inbounds nuw %"struct.std::_Vector_base.1", ptr %this1, i32 0, i32 0
  %_M_finish = getelementptr inbounds nuw %"struct.std::_Vector_base<double, std::allocator<double>>::_Vector_impl_data", ptr %_M_impl, i32 0, i32 1
  %0 = load ptr, ptr %_M_finish, align 8, !tbaa !37
  %_M_impl2 = getelementptr inbounds nuw %"struct.std::_Vector_base.1", ptr %this1, i32 0, i32 0
  %_M_start = getelementptr inbounds nuw %"struct.std::_Vector_base<double, std::allocator<double>>::_Vector_impl_data", ptr %_M_impl2, i32 0, i32 0
  %1 = load ptr, ptr %_M_start, align 8, !tbaa !36
  %sub.ptr.lhs.cast = ptrtoint ptr %0 to i64
  %sub.ptr.rhs.cast = ptrtoint ptr %1 to i64
  %sub.ptr.sub = sub i64 %sub.ptr.lhs.cast, %sub.ptr.rhs.cast
  %sub.ptr.div = sdiv exact i64 %sub.ptr.sub, 8
  ret i64 %sub.ptr.div
}

; Function Attrs: mustprogress nounwind uwtable
define linkonce_odr noundef nonnull align 8 dereferenceable(8) ptr @_ZNSt6vectorIdSaIdEEixEm(ptr noundef nonnull align 8 dereferenceable(24) %this, i64 noundef %__n) #1 comdat align 2 {
entry:
  %this.addr = alloca ptr, align 8
  %__n.addr = alloca i64, align 8
  store ptr %this, ptr %this.addr, align 8, !tbaa !3
  store i64 %__n, ptr %__n.addr, align 8, !tbaa !25
  %this1 = load ptr, ptr %this.addr, align 8
  %_M_impl = getelementptr inbounds nuw %"struct.std::_Vector_base.1", ptr %this1, i32 0, i32 0
  %_M_start = getelementptr inbounds nuw %"struct.std::_Vector_base<double, std::allocator<double>>::_Vector_impl_data", ptr %_M_impl, i32 0, i32 0
  %0 = load ptr, ptr %_M_start, align 8, !tbaa !36
  %1 = load i64, ptr %__n.addr, align 8, !tbaa !25
  %add.ptr = getelementptr inbounds nuw double, ptr %0, i64 %1
  ret ptr %add.ptr
}

; Function Attrs: mustprogress uwtable
define noundef double @_ZNK8QuantLib23CumulativeBehrensFisher7densityEd(ptr noundef nonnull align 8 dereferenceable(112) %this, double noundef %x) #0 align 2 {
entry:
  %this.addr = alloca ptr, align 8
  %x.addr = alloca double, align 8
  %squared = alloca double, align 8
  %integral = alloca double, align 8
  %rootsqr = alloca double, align 8
  %atan2xa = alloca double, align 8
  %exponent = alloca i64, align 8
  store ptr %this, ptr %this.addr, align 8, !tbaa !3
  store double %x, ptr %x.addr, align 8, !tbaa !7
  %this1 = load ptr, ptr %this.addr, align 8
  call void @llvm.lifetime.start.p0(i64 8, ptr %squared) #16
  %a2_ = getelementptr inbounds nuw %"class.QuantLib::CumulativeBehrensFisher", ptr %this1, i32 0, i32 5
  %0 = load double, ptr %a2_, align 8, !tbaa !33
  %1 = load double, ptr %x.addr, align 8, !tbaa !7
  %2 = load double, ptr %x.addr, align 8, !tbaa !7
  %3 = call double @llvm.fmuladd.f64(double %1, double %2, double %0)
  store double %3, ptr %squared, align 8, !tbaa !7
  call void @llvm.lifetime.start.p0(i64 8, ptr %integral) #16
  %polyConvolved_ = getelementptr inbounds nuw %"class.QuantLib::CumulativeBehrensFisher", ptr %this1, i32 0, i32 3
  %call = call noundef nonnull align 8 dereferenceable(8) ptr @_ZNSt6vectorIdSaIdEEixEm(ptr noundef nonnull align 8 dereferenceable(24) %polyConvolved_, i64 noundef 0) #16
  %4 = load double, ptr %call, align 8, !tbaa !7
  %a_ = getelementptr inbounds nuw %"class.QuantLib::CumulativeBehrensFisher", ptr %this1, i32 0, i32 4
  %5 = load double, ptr %a_, align 8, !tbaa !9
  %mul = fmul double %4, %5
  %6 = load double, ptr %squared, align 8, !tbaa !7
  %div = fdiv double %mul, %6
  store double %div, ptr %integral, align 8, !tbaa !7
  call void @llvm.lifetime.start.p0(i64 8, ptr %rootsqr) #16
  %7 = load double, ptr %squared, align 8, !tbaa !7
  %call2 = call double @sqrt(double noundef %7) #16, !tbaa !23
  store double %call2, ptr %rootsqr, align 8, !tbaa !7
  call void @llvm.lifetime.start.p0(i64 8, ptr %atan2xa) #16
  %8 = load double, ptr %x.addr, align 8, !tbaa !7
  %fneg = fneg double %8
  %a_3 = getelementptr inbounds nuw %"class.QuantLib::CumulativeBehrensFisher", ptr %this1, i32 0, i32 4
  %9 = load double, ptr %a_3, align 8, !tbaa !9
  %call4 = call double @atan2(double noundef %fneg, double noundef %9) #16, !tbaa !23
  store double %call4, ptr %atan2xa, align 8, !tbaa !7
  call void @llvm.lifetime.start.p0(i64 8, ptr %exponent) #16
  store i64 1, ptr %exponent, align 8, !tbaa !25
  br label %for.cond

for.cond:                                         ; preds = %for.inc, %entry
  %10 = load i64, ptr %exponent, align 8, !tbaa !25
  %polyConvolved_5 = getelementptr inbounds nuw %"class.QuantLib::CumulativeBehrensFisher", ptr %this1, i32 0, i32 3
  %call6 = call noundef i64 @_ZNKSt6vectorIdSaIdEE4sizeEv(ptr noundef nonnull align 8 dereferenceable(24) %polyConvolved_5) #16
  %cmp = icmp ult i64 %10, %call6
  br i1 %cmp, label %for.body, label %for.cond.cleanup

for.cond.cleanup:                                 ; preds = %for.cond
  call void @llvm.lifetime.end.p0(i64 8, ptr %exponent) #16
  br label %for.end

for.body:                                         ; preds = %for.cond
  %polyConvolved_7 = getelementptr inbounds nuw %"class.QuantLib::CumulativeBehrensFisher", ptr %this1, i32 0, i32 3
  %11 = load i64, ptr %exponent, align 8, !tbaa !25
  %call8 = call noundef nonnull align 8 dereferenceable(8) ptr @_ZNSt6vectorIdSaIdEEixEm(ptr noundef nonnull align 8 dereferenceable(24) %polyConvolved_7, i64 noundef %11) #16
  %12 = load double, ptr %call8, align 8, !tbaa !7
  %13 = load i64, ptr %exponent, align 8, !tbaa !25
  %conv = trunc i64 %13 to i32
  %call9 = call noundef double @_ZN8QuantLib9Factorial3getEj(i32 noundef %conv)
  %mul10 = fmul double %12, %call9
  %14 = load i64, ptr %exponent, align 8, !tbaa !25
  %add = add i64 %14, 1
  %conv11 = uitofp i64 %add to double
  %15 = load double, ptr %atan2xa, align 8, !tbaa !7
  %mul12 = fmul double %conv11, %15
  %call13 = call double @cos(double noundef %mul12) #16, !tbaa !23
  %mul14 = fmul double %mul10, %call13
  %16 = load double, ptr %rootsqr, align 8, !tbaa !7
  %17 = load i64, ptr %exponent, align 8, !tbaa !25
  %add15 = add i64 %17, 1
  %conv16 = uitofp i64 %add15 to double
  %call17 = call double @pow(double noundef %16, double noundef %conv16) #16, !tbaa !23
  %div18 = fdiv double %mul14, %call17
  %18 = load double, ptr %integral, align 8, !tbaa !7
  %add19 = fadd double %18, %div18
  store double %add19, ptr %integral, align 8, !tbaa !7
  br label %for.inc

for.inc:                                          ; preds = %for.body
  %19 = load i64, ptr %exponent, align 8, !tbaa !25
  %inc = add i64 %19, 1
  store i64 %inc, ptr %exponent, align 8, !tbaa !25
  br label %for.cond, !llvm.loop !55

for.end:                                          ; preds = %for.cond.cleanup
  %20 = load double, ptr %integral, align 8, !tbaa !7
  %div20 = fdiv double %20, 0x400921FB54442D18
  call void @llvm.lifetime.end.p0(i64 8, ptr %atan2xa) #16
  call void @llvm.lifetime.end.p0(i64 8, ptr %rootsqr) #16
  call void @llvm.lifetime.end.p0(i64 8, ptr %integral) #16
  call void @llvm.lifetime.end.p0(i64 8, ptr %squared) #16
  ret double %div20
}