; Function Attrs: mustprogress uwtable
define noundef double @_ZNK8QuantLib23CumulativeBehrensFisher7densityEd(ptr nocapture noundef nonnull readonly align 8 dereferenceable(112) %this, double noundef %x) local_unnamed_addr #0 align 2 {
entry:
  %a2_ = getelementptr inbounds nuw i8, ptr %this, i64 104
  %0 = load double, ptr %a2_, align 8, !tbaa !48
  %1 = tail call double @llvm.fmuladd.f64(double %x, double %x, double %0)
  %polyConvolved_ = getelementptr inbounds nuw i8, ptr %this, i64 72
  %2 = load ptr, ptr %polyConvolved_, align 8, !tbaa !14
  %3 = load double, ptr %2, align 8, !tbaa !16
  %a_ = getelementptr inbounds nuw i8, ptr %this, i64 96
  %4 = load double, ptr %a_, align 8, !tbaa !18
  %mul = fmul double %3, %4
  %div = fdiv double %mul, %1
  %call2 = tail call double @sqrt(double noundef %1) #22, !tbaa !36
  %fneg = fneg double %x
  %call4 = tail call double @atan2(double noundef %fneg, double noundef %4) #22, !tbaa !36
  %_M_finish.i = getelementptr inbounds nuw i8, ptr %this, i64 80
  %5 = load ptr, ptr %_M_finish.i, align 8, !tbaa !12
  %sub.ptr.lhs.cast.i10 = ptrtoint ptr %5 to i64
  %sub.ptr.rhs.cast.i11 = ptrtoint ptr %2 to i64
  %sub.ptr.sub.i12 = sub i64 %sub.ptr.lhs.cast.i10, %sub.ptr.rhs.cast.i11
  %cmp14 = icmp ugt i64 %sub.ptr.sub.i12, 8
  br i1 %cmp14, label %for.body, label %for.cond.cleanup

for.cond.cleanup:                                 ; preds = %for.body, %entry
  %integral.0.lcssa = phi double [ %div, %entry ], [ %add19, %for.body ]
  %div20 = fdiv double %integral.0.lcssa, 0x400921FB54442D18
  ret double %div20

for.body:                                         ; preds = %entry, %for.body
  %6 = phi ptr [ %9, %for.body ], [ %2, %entry ]
  %exponent.016 = phi i64 [ %add, %for.body ], [ 1, %entry ]
  %integral.015 = phi double [ %add19, %for.body ], [ %div, %entry ]
  %add.ptr.i = getelementptr inbounds nuw double, ptr %6, i64 %exponent.016
  %7 = load double, ptr %add.ptr.i, align 8, !tbaa !16
  %conv = trunc i64 %exponent.016 to i32
  %call9 = tail call noundef double @_ZN8QuantLib9Factorial3getEj(i32 noundef %conv)
  %mul10 = fmul double %7, %call9
  %add = add nuw i64 %exponent.016, 1
  %conv11 = uitofp i64 %add to double
  %mul12 = fmul double %call4, %conv11
  %call13 = tail call double @cos(double noundef %mul12) #22, !tbaa !36
  %mul14 = fmul double %mul10, %call13
  %call17 = tail call double @pow(double noundef %call2, double noundef %conv11) #22, !tbaa !36
  %div18 = fdiv double %mul14, %call17
  %add19 = fadd double %integral.015, %div18
  %8 = load ptr, ptr %_M_finish.i, align 8, !tbaa !12
  %9 = load ptr, ptr %polyConvolved_, align 8, !tbaa !14
  %sub.ptr.lhs.cast.i = ptrtoint ptr %8 to i64
  %sub.ptr.rhs.cast.i = ptrtoint ptr %9 to i64
  %sub.ptr.sub.i = sub i64 %sub.ptr.lhs.cast.i, %sub.ptr.rhs.cast.i
  %sub.ptr.div.i = ashr exact i64 %sub.ptr.sub.i, 3
  %cmp = icmp ult i64 %add, %sub.ptr.div.i
  br i1 %cmp, label %for.body, label %for.cond.cleanup, !llvm.loop !64
}